target datalayout = "e-m:e-p270:32:32-p271:32:32-p272:64:64-i64:64-i128:128-f80:128-n8:16:32:64-S128"
target triple = "x86_64-pc-linux-gnu"

%struct.ScanKeyData = type { i32, i16, i16, i32, i32, %struct.FmgrInfo, i64 }
%struct.FmgrInfo = type { ptr, i32, i16, i8, i8, i8, ptr, ptr, ptr }
%struct.RelationData = type { %struct.RelFileLocator, ptr, i32, i32, i8, i8, i8, i8, i8, i32, i32, i32, i32, ptr, ptr, i32, %struct.LockInfoData, ptr, ptr, ptr, ptr, ptr, i8, ptr, ptr, ptr, ptr, ptr, ptr, i32, ptr, i8, ptr, ptr, i32, i8, i32, ptr, i8, ptr, ptr, ptr, ptr, ptr, ptr, ptr, i32, ptr, ptr, ptr, ptr, ptr, ptr, ptr, ptr, ptr, ptr, ptr, ptr, ptr, ptr, ptr, ptr, ptr, ptr, ptr, i32, i8, ptr }
%struct.RelFileLocator = type { i32, i32, i32 }
%struct.LockInfoData = type { %struct.LockRelId }
%struct.LockRelId = type { i32, i32 }
%struct.FormData_pg_class = type { i32, %struct.nameData, i32, i32, i32, i32, i32, i32, i32, i32, float, i32, i32, i8, i8, i8, i8, i16, i16, i8, i8, i8, i8, i8, i8, i8, i8, i32, i32, i32 }
%struct.nameData = type { [64 x i8] }
%struct.RowSecurityDesc = type { ptr, ptr }
%struct.FormData_pg_policy = type { i32, %struct.nameData, i32, i8, i8 }
%struct.RowSecurityPolicy = type { ptr, i8, ptr, i8, ptr, ptr, i8 }
%struct.HeapTupleData = type { i32, %struct.ItemPointerData, i32, ptr }
%struct.ItemPointerData = type { %struct.BlockIdData, i16 }
%struct.BlockIdData = type { i16, i16 }
%struct.HeapTupleHeaderData = type { %union.anon, %struct.ItemPointerData, i16, i16, i8, [0 x i8] }
%union.anon = type { %struct.HeapTupleFields }
%struct.HeapTupleFields = type { i32, i32, %union.anon.0 }
%union.anon.0 = type { i32 }

@CurrentMemoryContext = external global ptr, align 8
@.str = private unnamed_addr constant [24 x i8] c"row security descriptor\00", align 1
@.str.1 = private unnamed_addr constant [44 x i8] c"unexpected null value in pg_policy.polroles\00", align 1
@.str.2 = private unnamed_addr constant [9 x i8] c"policy.c\00", align 1
@__func__.RelationBuildRowSecurity = private unnamed_addr constant [25 x i8] c"RelationBuildRowSecurity\00", align 1
@CacheMemoryContext = external global ptr, align 8

; Function Attrs: inlinehint nounwind uwtable
define internal ptr @DatumGetPointer(i64 noundef %0) #3 {
  %2 = alloca i64, align 8
  store i64 %0, ptr %2, align 8
  %3 = load i64, ptr %2, align 8
  %4 = inttoptr i64 %3 to ptr
  ret ptr %4
}

; Function Attrs: inlinehint nounwind uwtable
define internal ptr @MemoryContextSwitchTo(ptr noundef %0) #3 {
  %2 = alloca ptr, align 8
  %3 = alloca ptr, align 8
  store ptr %0, ptr %2, align 8
  call void @llvm.lifetime.start.p0(i64 8, ptr %3) #8
  %4 = load ptr, ptr @CurrentMemoryContext, align 8
  store ptr %4, ptr %3, align 8
  %5 = load ptr, ptr %2, align 8
  store ptr %5, ptr @CurrentMemoryContext, align 8
  %6 = load ptr, ptr %3, align 8
  call void @llvm.lifetime.end.p0(i64 8, ptr %3) #8
  ret ptr %6
}

; Function Attrs: inlinehint nounwind uwtable
define internal ptr @GETSTRUCT(ptr noundef %0) #3 {
  %2 = alloca ptr, align 8
  store ptr %0, ptr %2, align 8
  %3 = load ptr, ptr %2, align 8
  %4 = getelementptr inbounds nuw %struct.HeapTupleData, ptr %3, i32 0, i32 3
  %5 = load ptr, ptr %4, align 8
  %6 = load ptr, ptr %2, align 8
  %7 = getelementptr inbounds nuw %struct.HeapTupleData, ptr %6, i32 0, i32 3
  %8 = load ptr, ptr %7, align 8
  %9 = getelementptr inbounds nuw %struct.HeapTupleHeaderData, ptr %8, i32 0, i32 4
  %10 = load i8, ptr %9, align 2
  %11 = zext i8 %10 to i32
  %12 = sext i32 %11 to i64
  %13 = getelementptr inbounds i8, ptr %5, i64 %12
  ret ptr %13
}

; Function Attrs: inlinehint nounwind uwtable
define internal i64 @ObjectIdGetDatum(i32 noundef %0) #3 {
  %2 = alloca i32, align 4
  store i32 %0, ptr %2, align 4
  %3 = load i32, ptr %2, align 4
  %4 = zext i32 %3 to i64
  ret i64 %4
}

; Function Attrs: nounwind uwtable
define dso_local void @RelationBuildRowSecurity(ptr noundef %0) #0 {
  %2 = alloca ptr, align 8
  %3 = alloca ptr, align 8
  %4 = alloca ptr, align 8
  %5 = alloca ptr, align 8
  %6 = alloca ptr, align 8
  %7 = alloca %struct.ScanKeyData, align 8
  %8 = alloca ptr, align 8
  %9 = alloca ptr, align 8
  %10 = alloca i32, align 4
  %11 = alloca ptr, align 8
  %12 = alloca ptr, align 8
  %13 = alloca i64, align 8
  %14 = alloca i8, align 1
  %15 = alloca ptr, align 8
  store ptr %0, ptr %2, align 8
  call void @llvm.lifetime.start.p0(i64 8, ptr %3) #8
  call void @llvm.lifetime.start.p0(i64 8, ptr %4) #8
  %16 = load ptr, ptr @CurrentMemoryContext, align 8
  store ptr %16, ptr %4, align 8
  call void @llvm.lifetime.start.p0(i64 8, ptr %5) #8
  call void @llvm.lifetime.start.p0(i64 8, ptr %6) #8
  call void @llvm.lifetime.start.p0(i64 72, ptr %7) #8
  call void @llvm.lifetime.start.p0(i64 8, ptr %8) #8
  call void @llvm.lifetime.start.p0(i64 8, ptr %9) #8
  br label %17

17:                                               ; preds = %1
  br label %18

18:                                               ; preds = %17
  br label %19

19:                                               ; preds = %18
  store i32 1, ptr %10, align 4
  %20 = load ptr, ptr @CurrentMemoryContext, align 8
  %21 = call ptr @AllocSetContextCreateInternal(ptr noundef %20, ptr noundef @.str, i64 noundef 0, i64 noundef 1024, i64 noundef 8192)
  store ptr %21, ptr %3, align 8
  %22 = load ptr, ptr %3, align 8
  %23 = load ptr, ptr %3, align 8
  %24 = load ptr, ptr %2, align 8
  %25 = getelementptr inbounds nuw %struct.RelationData, ptr %24, i32 0, i32 13
  %26 = load ptr, ptr %25, align 8
  %27 = getelementptr inbounds nuw %struct.FormData_pg_class, ptr %26, i32 0, i32 1
  %28 = getelementptr inbounds nuw %struct.nameData, ptr %27, i32 0, i32 0
  %29 = getelementptr inbounds [64 x i8], ptr %28, i64 0, i64 0
  %30 = call ptr @MemoryContextStrdup(ptr noundef %23, ptr noundef %29)
  call void @MemoryContextSetIdentifier(ptr noundef %22, ptr noundef %30)
  %31 = load ptr, ptr %3, align 8
  %32 = call ptr @MemoryContextAllocZero(ptr noundef %31, i64 noundef 16)
  store ptr %32, ptr %5, align 8
  %33 = load ptr, ptr %3, align 8
  %34 = load ptr, ptr %5, align 8
  %35 = getelementptr inbounds nuw %struct.RowSecurityDesc, ptr %34, i32 0, i32 0
  store ptr %33, ptr %35, align 8
  %36 = call ptr @table_open(i32 noundef 3256, i32 noundef 1)
  store ptr %36, ptr %6, align 8
  %37 = load ptr, ptr %2, align 8
  %38 = getelementptr inbounds nuw %struct.RelationData, ptr %37, i32 0, i32 15
  %39 = load i32, ptr %38, align 8
  %40 = call i64 @ObjectIdGetDatum(i32 noundef %39)
  call void @ScanKeyInit(ptr noundef %7, i16 noundef signext 3, i16 noundef zeroext 3, i32 noundef 184, i64 noundef %40)
  %41 = load ptr, ptr %6, align 8
  %42 = call ptr @systable_beginscan(ptr noundef %41, i32 noundef 3258, i1 noundef zeroext true, ptr noundef null, i32 noundef 1, ptr noundef %7)
  store ptr %42, ptr %8, align 8
  br label %43

43:                                               ; preds = %157, %19
  %44 = load ptr, ptr %8, align 8
  %45 = call ptr @systable_getnext(ptr noundef %44)
  store ptr %45, ptr %9, align 8
  %46 = icmp ne ptr %45, null
  br i1 %46, label %47, label %173

47:                                               ; preds = %43
  call void @llvm.lifetime.start.p0(i64 8, ptr %11) #8
  %48 = load ptr, ptr %9, align 8
  %49 = call ptr @GETSTRUCT(ptr noundef %48)
  store ptr %49, ptr %11, align 8
  call void @llvm.lifetime.start.p0(i64 8, ptr %12) #8
  call void @llvm.lifetime.start.p0(i64 8, ptr %13) #8
  call void @llvm.lifetime.start.p0(i64 1, ptr %14) #8
  call void @llvm.lifetime.start.p0(i64 8, ptr %15) #8
  %50 = load ptr, ptr %3, align 8
  %51 = call ptr @MemoryContextAllocZero(ptr noundef %50, i64 noundef 56)
  store ptr %51, ptr %12, align 8
  %52 = load ptr, ptr %11, align 8
  %53 = getelementptr inbounds nuw %struct.FormData_pg_policy, ptr %52, i32 0, i32 3
  %54 = load i8, ptr %53, align 4
  %55 = load ptr, ptr %12, align 8
  %56 = getelementptr inbounds nuw %struct.RowSecurityPolicy, ptr %55, i32 0, i32 1
  store i8 %54, ptr %56, align 8
  %57 = load ptr, ptr %11, align 8
  %58 = getelementptr inbounds nuw %struct.FormData_pg_policy, ptr %57, i32 0, i32 4
  %59 = load i8, ptr %58, align 1, !range !4, !noundef !5
  %60 = trunc i8 %59 to i1
  %61 = load ptr, ptr %12, align 8
  %62 = getelementptr inbounds nuw %struct.RowSecurityPolicy, ptr %61, i32 0, i32 3
  %63 = zext i1 %60 to i8
  store i8 %63, ptr %62, align 8
  %64 = load ptr, ptr %3, align 8
  %65 = load ptr, ptr %11, align 8
  %66 = getelementptr inbounds nuw %struct.FormData_pg_policy, ptr %65, i32 0, i32 1
  %67 = getelementptr inbounds nuw %struct.nameData, ptr %66, i32 0, i32 0
  %68 = getelementptr inbounds [64 x i8], ptr %67, i64 0, i64 0
  %69 = call ptr @MemoryContextStrdup(ptr noundef %64, ptr noundef %68)
  %70 = load ptr, ptr %12, align 8
  %71 = getelementptr inbounds nuw %struct.RowSecurityPolicy, ptr %70, i32 0, i32 0
  store ptr %69, ptr %71, align 8
  %72 = load ptr, ptr %9, align 8
  %73 = load ptr, ptr %6, align 8
  %74 = getelementptr inbounds nuw %struct.RelationData, ptr %73, i32 0, i32 14
  %75 = load ptr, ptr %74, align 8
  %76 = call i64 @heap_getattr(ptr noundef %72, i32 noundef 6, ptr noundef %75, ptr noundef %14)
  store i64 %76, ptr %13, align 8
  %77 = load i8, ptr %14, align 1, !range !4, !noundef !5
  %78 = trunc i8 %77 to i1
  br i1 %78, label %79, label %90

79:                                               ; preds = %47
  br label %80

80:                                               ; preds = %79
  br i1 true, label %81, label %83

81:                                               ; preds = %80
  %82 = call zeroext i1 @errstart_cold(i32 noundef 21, ptr noundef null) #9
  br i1 %82, label %85, label %87

83:                                               ; preds = %80
  %84 = call zeroext i1 @errstart(i32 noundef 21, ptr noundef null)
  br i1 %84, label %85, label %87

85:                                               ; preds = %83, %81
  %86 = call i32 (ptr, ...) @errmsg_internal(ptr noundef @.str.1)
  call void @errfinish(ptr noundef @.str.2, i32 noundef 265, ptr noundef @__func__.RelationBuildRowSecurity)
  br label %87

87:                                               ; preds = %85, %83, %81
  unreachable

88:                                               ; No predecessors!
  br label %89

89:                                               ; preds = %88
  br label %90

90:                                               ; preds = %89, %47
  %91 = load ptr, ptr %3, align 8
  %92 = call ptr @MemoryContextSwitchTo(ptr noundef %91)
  %93 = load i64, ptr %13, align 8
  %94 = call ptr @DatumGetPointer(i64 noundef %93)
  %95 = call ptr @pg_detoast_datum_copy(ptr noundef %94)
  %96 = load ptr, ptr %12, align 8
  %97 = getelementptr inbounds nuw %struct.RowSecurityPolicy, ptr %96, i32 0, i32 2
  store ptr %95, ptr %97, align 8
  %98 = load ptr, ptr %4, align 8
  %99 = call ptr @MemoryContextSwitchTo(ptr noundef %98)
  %100 = load ptr, ptr %9, align 8
  %101 = load ptr, ptr %6, align 8
  %102 = getelementptr inbounds nuw %struct.RelationData, ptr %101, i32 0, i32 14
  %103 = load ptr, ptr %102, align 8
  %104 = call i64 @heap_getattr(ptr noundef %100, i32 noundef 7, ptr noundef %103, ptr noundef %14)
  store i64 %104, ptr %13, align 8
  %105 = load i8, ptr %14, align 1, !range !4, !noundef !5
  %106 = trunc i8 %105 to i1
  br i1 %106, label %120, label %107

107:                                              ; preds = %90
  %108 = load i64, ptr %13, align 8
  %109 = call ptr @DatumGetPointer(i64 noundef %108)
  %110 = call ptr @text_to_cstring(ptr noundef %109)
  store ptr %110, ptr %15, align 8
  %111 = load ptr, ptr %3, align 8
  %112 = call ptr @MemoryContextSwitchTo(ptr noundef %111)
  %113 = load ptr, ptr %15, align 8
  %114 = call ptr @stringToNode(ptr noundef %113)
  %115 = load ptr, ptr %12, align 8
  %116 = getelementptr inbounds nuw %struct.RowSecurityPolicy, ptr %115, i32 0, i32 4
  store ptr %114, ptr %116, align 8
  %117 = load ptr, ptr %4, align 8
  %118 = call ptr @MemoryContextSwitchTo(ptr noundef %117)
  %119 = load ptr, ptr %15, align 8
  call void @pfree(ptr noundef %119)
  br label %123

120:                                              ; preds = %90
  %121 = load ptr, ptr %12, align 8
  %122 = getelementptr inbounds nuw %struct.RowSecurityPolicy, ptr %121, i32 0, i32 4
  store ptr null, ptr %122, align 8
  br label %123

123:                                              ; preds = %120, %107
  %124 = load ptr, ptr %9, align 8
  %125 = load ptr, ptr %6, align 8
  %126 = getelementptr inbounds nuw %struct.RelationData, ptr %125, i32 0, i32 14
  %127 = load ptr, ptr %126, align 8
  %128 = call i64 @heap_getattr(ptr noundef %124, i32 noundef 8, ptr noundef %127, ptr noundef %14)
  store i64 %128, ptr %13, align 8
  %129 = load i8, ptr %14, align 1, !range !4, !noundef !5
  %130 = trunc i8 %129 to i1
  br i1 %130, label %144, label %131

131:                                              ; preds = %123
  %132 = load i64, ptr %13, align 8
  %133 = call ptr @DatumGetPointer(i64 noundef %132)
  %134 = call ptr @text_to_cstring(ptr noundef %133)
  store ptr %134, ptr %15, align 8
  %135 = load ptr, ptr %3, align 8
  %136 = call ptr @MemoryContextSwitchTo(ptr noundef %135)
  %137 = load ptr, ptr %15, align 8
  %138 = call ptr @stringToNode(ptr noundef %137)
  %139 = load ptr, ptr %12, align 8
  %140 = getelementptr inbounds nuw %struct.RowSecurityPolicy, ptr %139, i32 0, i32 5
  store ptr %138, ptr %140, align 8
  %141 = load ptr, ptr %4, align 8
  %142 = call ptr @MemoryContextSwitchTo(ptr noundef %141)
  %143 = load ptr, ptr %15, align 8
  call void @pfree(ptr noundef %143)
  br label %147

144:                                              ; preds = %123
  %145 = load ptr, ptr %12, align 8
  %146 = getelementptr inbounds nuw %struct.RowSecurityPolicy, ptr %145, i32 0, i32 5
  store ptr null, ptr %146, align 8
  br label %147

147:                                              ; preds = %144, %131
  %148 = load ptr, ptr %12, align 8
  %149 = getelementptr inbounds nuw %struct.RowSecurityPolicy, ptr %148, i32 0, i32 4
  %150 = load ptr, ptr %149, align 8
  %151 = call zeroext i1 @checkExprHasSubLink(ptr noundef %150)
  br i1 %151, label %157, label %152

152:                                              ; preds = %147
  %153 = load ptr, ptr %12, align 8
  %154 = getelementptr inbounds nuw %struct.RowSecurityPolicy, ptr %153, i32 0, i32 5
  %155 = load ptr, ptr %154, align 8
  %156 = call zeroext i1 @checkExprHasSubLink(ptr noundef %155)
  br label %157

157:                                              ; preds = %152, %147
  %158 = phi i1 [ true, %147 ], [ %156, %152 ]
  %159 = load ptr, ptr %12, align 8
  %160 = getelementptr inbounds nuw %struct.RowSecurityPolicy, ptr %159, i32 0, i32 6
  %161 = zext i1 %158 to i8
  store i8 %161, ptr %160, align 8
  %162 = load ptr, ptr %3, align 8
  %163 = call ptr @MemoryContextSwitchTo(ptr noundef %162)
  %164 = load ptr, ptr %12, align 8
  %165 = load ptr, ptr %5, align 8
  %166 = getelementptr inbounds nuw %struct.RowSecurityDesc, ptr %165, i32 0, i32 1
  %167 = load ptr, ptr %166, align 8
  %168 = call ptr @lcons(ptr noundef %164, ptr noundef %167)
  %169 = load ptr, ptr %5, align 8
  %170 = getelementptr inbounds nuw %struct.RowSecurityDesc, ptr %169, i32 0, i32 1
  store ptr %168, ptr %170, align 8
  %171 = load ptr, ptr %4, align 8
  %172 = call ptr @MemoryContextSwitchTo(ptr noundef %171)
  call void @llvm.lifetime.end.p0(i64 8, ptr %15) #8
  call void @llvm.lifetime.end.p0(i64 1, ptr %14) #8
  call void @llvm.lifetime.end.p0(i64 8, ptr %13) #8
  call void @llvm.lifetime.end.p0(i64 8, ptr %12) #8
  call void @llvm.lifetime.end.p0(i64 8, ptr %11) #8
  br label %43, !llvm.loop !6

173:                                              ; preds = %43
  %174 = load ptr, ptr %8, align 8
  call void @systable_endscan(ptr noundef %174)
  %175 = load ptr, ptr %6, align 8
  call void @table_close(ptr noundef %175, i32 noundef 1)
  %176 = load ptr, ptr %3, align 8
  %177 = load ptr, ptr @CacheMemoryContext, align 8
  call void @MemoryContextSetParent(ptr noundef %176, ptr noundef %177)
  %178 = load ptr, ptr %5, align 8
  %179 = load ptr, ptr %2, align 8
  %180 = getelementptr inbounds nuw %struct.RelationData, ptr %179, i32 0, i32 20
  store ptr %178, ptr %180, align 8
  call void @llvm.lifetime.end.p0(i64 8, ptr %9) #8
  call void @llvm.lifetime.end.p0(i64 8, ptr %8) #8
  call void @llvm.lifetime.end.p0(i64 72, ptr %7) #8
  call void @llvm.lifetime.end.p0(i64 8, ptr %6) #8
  call void @llvm.lifetime.end.p0(i64 8, ptr %5) #8
  call void @llvm.lifetime.end.p0(i64 8, ptr %4) #8
  call void @llvm.lifetime.end.p0(i64 8, ptr %3) #8
  ret void
}