; Function Attrs: nounwind uwtable
define dso_local void @RelationBuildRowSecurity(ptr noundef captures(none) %0) local_unnamed_addr #0 {
  %2 = alloca %struct.ScanKeyData, align 8
  %3 = alloca i8, align 1
  %4 = load ptr, ptr @CurrentMemoryContext, align 8
  call void @llvm.lifetime.start.p0(i64 72, ptr nonnull %2) #8
  %5 = tail call ptr @AllocSetContextCreateInternal(ptr noundef %4, ptr noundef nonnull @.str, i64 noundef 0, i64 noundef 1024, i64 noundef 8192) #8
  %6 = getelementptr inbounds nuw i8, ptr %0, i64 56
  %7 = load ptr, ptr %6, align 8
  %8 = getelementptr inbounds nuw i8, ptr %7, i64 4
  %9 = tail call ptr @MemoryContextStrdup(ptr noundef %5, ptr noundef nonnull %8) #8
  tail call void @MemoryContextSetIdentifier(ptr noundef %5, ptr noundef %9) #8
  %10 = tail call ptr @MemoryContextAllocZero(ptr noundef %5, i64 noundef 16) #8
  store ptr %5, ptr %10, align 8
  %11 = tail call ptr @table_open(i32 noundef 3256, i32 noundef 1) #8
  %12 = getelementptr inbounds nuw i8, ptr %0, i64 72
  %13 = load i32, ptr %12, align 8
  %14 = zext i32 %13 to i64
  call void @ScanKeyInit(ptr noundef nonnull %2, i16 noundef signext 3, i16 noundef zeroext 3, i32 noundef 184, i64 noundef %14) #8
  %15 = call ptr @systable_beginscan(ptr noundef %11, i32 noundef 3258, i1 noundef zeroext true, ptr noundef null, i32 noundef 1, ptr noundef nonnull %2) #8
  %16 = call ptr @systable_getnext(ptr noundef %15) #8
  %.not54 = icmp eq ptr %16, null
  br i1 %.not54, label %._crit_edge, label %.lr.ph

.lr.ph:                                           ; preds = %1
  %17 = getelementptr inbounds nuw i8, ptr %11, i64 64
  %18 = getelementptr inbounds nuw i8, ptr %10, i64 8
  br label %19

19:                                               ; preds = %.lr.ph, %78
  %20 = phi ptr [ %16, %.lr.ph ], [ %83, %78 ]
  %21 = getelementptr i8, ptr %20, i64 16
  %.val = load ptr, ptr %21, align 8
  %22 = getelementptr inbounds nuw i8, ptr %.val, i64 22
  %23 = load i8, ptr %22, align 2
  %24 = zext i8 %23 to i64
  %25 = getelementptr inbounds nuw i8, ptr %.val, i64 %24
  call void @llvm.lifetime.start.p0(i64 1, ptr nonnull %3) #8
  %26 = call ptr @MemoryContextAllocZero(ptr noundef %5, i64 noundef 56) #8
  %27 = getelementptr inbounds nuw i8, ptr %25, i64 72
  %28 = load i8, ptr %27, align 4
  %29 = getelementptr inbounds nuw i8, ptr %26, i64 8
  store i8 %28, ptr %29, align 8
  %30 = getelementptr inbounds nuw i8, ptr %25, i64 73
  %31 = load i8, ptr %30, align 1, !range !4, !noundef !5
  %32 = getelementptr inbounds nuw i8, ptr %26, i64 24
  store i8 %31, ptr %32, align 8
  %33 = getelementptr inbounds nuw i8, ptr %25, i64 4
  %34 = call ptr @MemoryContextStrdup(ptr noundef %5, ptr noundef nonnull %33) #8
  store ptr %34, ptr %26, align 8
  %35 = load ptr, ptr %17, align 8
  %36 = call fastcc i64 @heap_getattr(ptr noundef %20, i32 noundef 6, ptr noundef %35, ptr noundef %3)
  %37 = load i8, ptr %3, align 1, !range !4, !noundef !5
  %38 = trunc nuw i8 %37 to i1
  br i1 %38, label %39, label %42

39:                                               ; preds = %19
  %40 = call zeroext i1 @errstart_cold(i32 noundef 21, ptr noundef null) #9
  call void @llvm.assume(i1 %40)
  %41 = call i32 (ptr, ...) @errmsg_internal(ptr noundef nonnull @.str.1) #8
  call void @errfinish(ptr noundef nonnull @.str.2, i32 noundef 265, ptr noundef nonnull @__func__.RelationBuildRowSecurity) #8
  unreachable

42:                                               ; preds = %19
  store ptr %5, ptr @CurrentMemoryContext, align 8
  %43 = inttoptr i64 %36 to ptr
  %44 = call ptr @pg_detoast_datum_copy(ptr noundef %43) #8
  %45 = getelementptr inbounds nuw i8, ptr %26, i64 16
  store ptr %44, ptr %45, align 8
  store ptr %4, ptr @CurrentMemoryContext, align 8
  %46 = load ptr, ptr %17, align 8
  %47 = call fastcc i64 @heap_getattr(ptr noundef %20, i32 noundef 7, ptr noundef %46, ptr noundef %3)
  %48 = load i8, ptr %3, align 1, !range !4, !noundef !5
  %49 = trunc nuw i8 %48 to i1
  br i1 %49, label %55, label %50

50:                                               ; preds = %42
  %51 = inttoptr i64 %47 to ptr
  %52 = call ptr @text_to_cstring(ptr noundef %51) #8
  store ptr %5, ptr @CurrentMemoryContext, align 8
  %53 = call ptr @stringToNode(ptr noundef %52) #8
  %54 = getelementptr inbounds nuw i8, ptr %26, i64 32
  store ptr %53, ptr %54, align 8
  store ptr %4, ptr @CurrentMemoryContext, align 8
  call void @pfree(ptr noundef %52) #8
  br label %57

55:                                               ; preds = %42
  %56 = getelementptr inbounds nuw i8, ptr %26, i64 32
  store ptr null, ptr %56, align 8
  br label %57

57:                                               ; preds = %55, %50
  %58 = load ptr, ptr %17, align 8
  %59 = call fastcc i64 @heap_getattr(ptr noundef %20, i32 noundef 8, ptr noundef %58, ptr noundef %3)
  %60 = load i8, ptr %3, align 1, !range !4, !noundef !5
  %61 = trunc nuw i8 %60 to i1
  br i1 %61, label %67, label %62

62:                                               ; preds = %57
  %63 = inttoptr i64 %59 to ptr
  %64 = call ptr @text_to_cstring(ptr noundef %63) #8
  store ptr %5, ptr @CurrentMemoryContext, align 8
  %65 = call ptr @stringToNode(ptr noundef %64) #8
  %66 = getelementptr inbounds nuw i8, ptr %26, i64 40
  store ptr %65, ptr %66, align 8
  store ptr %4, ptr @CurrentMemoryContext, align 8
  call void @pfree(ptr noundef %64) #8
  br label %69

67:                                               ; preds = %57
  %68 = getelementptr inbounds nuw i8, ptr %26, i64 40
  store ptr null, ptr %68, align 8
  br label %69

69:                                               ; preds = %67, %62
  %70 = getelementptr inbounds nuw i8, ptr %26, i64 32
  %71 = load ptr, ptr %70, align 8
  %72 = call zeroext i1 @checkExprHasSubLink(ptr noundef %71) #8
  br i1 %72, label %78, label %73

73:                                               ; preds = %69
  %74 = getelementptr inbounds nuw i8, ptr %26, i64 40
  %75 = load ptr, ptr %74, align 8
  %76 = call zeroext i1 @checkExprHasSubLink(ptr noundef %75) #8
  %77 = zext i1 %76 to i8
  br label %78

78:                                               ; preds = %73, %69
  %79 = phi i8 [ 1, %69 ], [ %77, %73 ]
  %80 = getelementptr inbounds nuw i8, ptr %26, i64 48
  store i8 %79, ptr %80, align 8
  store ptr %5, ptr @CurrentMemoryContext, align 8
  %81 = load ptr, ptr %18, align 8
  %82 = call ptr @lcons(ptr noundef nonnull %26, ptr noundef %81) #8
  store ptr %82, ptr %18, align 8
  store ptr %4, ptr @CurrentMemoryContext, align 8
  call void @llvm.lifetime.end.p0(i64 1, ptr nonnull %3) #8
  %83 = call ptr @systable_getnext(ptr noundef %15) #8
  %.not = icmp eq ptr %83, null
  br i1 %.not, label %._crit_edge, label %19, !llvm.loop !6

._crit_edge:                                      ; preds = %78, %1
  call void @systable_endscan(ptr noundef %15) #8
  call void @table_close(ptr noundef %11, i32 noundef 1) #8
  %84 = load ptr, ptr @CacheMemoryContext, align 8
  call void @MemoryContextSetParent(ptr noundef %5, ptr noundef %84) #8
  %85 = getelementptr inbounds nuw i8, ptr %0, i64 112
  store ptr %10, ptr %85, align 8
  call void @llvm.lifetime.end.p0(i64 72, ptr nonnull %2) #8
  ret void
}